target datalayout = "e-m:e-p270:32:32-p271:32:32-p272:64:64-i64:64-i128:128-f80:128-n8:16:32:64-S128"
target triple = "x86_64-pc-linux-gnu"

@.str.7 = private unnamed_addr constant [40 x i8] c"../openssl/test/namemap_internal_test.c\00", align 1
@.str.13 = private unnamed_addr constant [2 x i8] c"0\00", align 1
@.str.15 = private unnamed_addr constant [3 x i8] c"nm\00", align 1
@.str.29 = private unnamed_addr constant [7 x i8] c"SHA256\00", align 1
@.str.30 = private unnamed_addr constant [3 x i8] c"id\00", align 1
@.str.31 = private unnamed_addr constant [37 x i8] c"ossl_namemap_add_name(nm, id, \22foo\22)\00", align 1
@.str.32 = private unnamed_addr constant [4 x i8] c"foo\00", align 1
@.str.33 = private unnamed_addr constant [7 x i8] c"sha256\00", align 1

; Function Attrs: nounwind uwtable
define internal i32 @test_digestbyname() #0 {
  %1 = alloca i32, align 4
  %2 = alloca i32, align 4
  %3 = alloca ptr, align 8
  %4 = alloca ptr, align 8
  %5 = alloca ptr, align 8
  %6 = alloca i32, align 4
  call void @llvm.lifetime.start.p0(i64 4, ptr %2) #3
  call void @llvm.lifetime.start.p0(i64 8, ptr %3) #3
  %7 = call ptr @ossl_namemap_stored(ptr noundef null)
  store ptr %7, ptr %3, align 8, !tbaa !4
  call void @llvm.lifetime.start.p0(i64 8, ptr %4) #3
  call void @llvm.lifetime.start.p0(i64 8, ptr %5) #3
  %8 = load ptr, ptr %3, align 8, !tbaa !4
  %9 = call i32 @test_ptr(ptr noundef @.str.7, i32 noundef 83, ptr noundef @.str.15, ptr noundef %8)
  %10 = icmp ne i32 %9, 0
  br i1 %10, label %12, label %11

11:                                               ; preds = %0
  store i32 0, ptr %1, align 4
  store i32 1, ptr %6, align 4
  br label %41

12:                                               ; preds = %0
  %13 = load ptr, ptr %3, align 8, !tbaa !4
  %14 = call i32 @ossl_namemap_add_name(ptr noundef %13, i32 noundef 0, ptr noundef @.str.29)
  store i32 %14, ptr %2, align 4, !tbaa !9
  %15 = load i32, ptr %2, align 4, !tbaa !9
  %16 = call i32 @test_int_ne(ptr noundef @.str.7, i32 noundef 86, ptr noundef @.str.30, ptr noundef @.str.13, i32 noundef %15, i32 noundef 0)
  %17 = icmp ne i32 %16, 0
  br i1 %17, label %19, label %18

18:                                               ; preds = %12
  store i32 0, ptr %1, align 4
  store i32 1, ptr %6, align 4
  br label %41

19:                                               ; preds = %12
  %20 = load ptr, ptr %3, align 8, !tbaa !4
  %21 = load i32, ptr %2, align 4, !tbaa !9
  %22 = call i32 @ossl_namemap_add_name(ptr noundef %20, i32 noundef %21, ptr noundef @.str.32)
  %23 = load i32, ptr %2, align 4, !tbaa !9
  %24 = call i32 @test_int_eq(ptr noundef @.str.7, i32 noundef 88, ptr noundef @.str.31, ptr noundef @.str.30, i32 noundef %22, i32 noundef %23)
  %25 = icmp ne i32 %24, 0
  br i1 %25, label %27, label %26

26:                                               ; preds = %19
  store i32 0, ptr %1, align 4
  store i32 1, ptr %6, align 4
  br label %41

27:                                               ; preds = %19
  %28 = call ptr @EVP_get_digestbyname(ptr noundef @.str.29)
  store ptr %28, ptr %4, align 8, !tbaa !11
  %29 = load ptr, ptr %4, align 8, !tbaa !11
  %30 = call i32 @test_ptr(ptr noundef @.str.7, i32 noundef 92, ptr noundef @.str.33, ptr noundef %29)
  %31 = icmp ne i32 %30, 0
  br i1 %31, label %33, label %32

32:                                               ; preds = %27
  store i32 0, ptr %1, align 4
  store i32 1, ptr %6, align 4
  br label %41

33:                                               ; preds = %27
  %34 = call ptr @EVP_get_digestbyname(ptr noundef @.str.32)
  store ptr %34, ptr %5, align 8, !tbaa !11
  %35 = load ptr, ptr %4, align 8, !tbaa !11
  %36 = load ptr, ptr %5, align 8, !tbaa !11
  %37 = call i32 @test_ptr_eq(ptr noundef @.str.7, i32 noundef 95, ptr noundef @.str.33, ptr noundef @.str.32, ptr noundef %35, ptr noundef %36)
  %38 = icmp ne i32 %37, 0
  br i1 %38, label %40, label %39

39:                                               ; preds = %33
  store i32 0, ptr %1, align 4
  store i32 1, ptr %6, align 4
  br label %41

40:                                               ; preds = %33
  store i32 1, ptr %1, align 4
  store i32 1, ptr %6, align 4
  br label %41

41:                                               ; preds = %40, %39, %32, %26, %18, %11
  call void @llvm.lifetime.end.p0(i64 8, ptr %5) #3
  call void @llvm.lifetime.end.p0(i64 8, ptr %4) #3
  call void @llvm.lifetime.end.p0(i64 8, ptr %3) #3
  call void @llvm.lifetime.end.p0(i64 4, ptr %2) #3
  %42 = load i32, ptr %1, align 4
  ret i32 %42
}